target datalayout = "e-m:e-p270:32:32-p271:32:32-p272:64:64-i64:64-i128:128-f80:128-n8:16:32:64-S128"
target triple = "x86_64-pc-linux-gnu"

%struct.lua_TValue = type { %union.Value, i32 }
%union.Value = type { ptr }
%struct.lua_State = type { ptr, i8, i8, i8, ptr, ptr, ptr, ptr, ptr, ptr, ptr, ptr, ptr, i32, i32, i16, i16, i8, i8, i32, i32, ptr, %struct.lua_TValue, %struct.lua_TValue, ptr, ptr, ptr, i64 }
%struct.CallInfo = type { ptr, ptr, ptr, ptr, i32, i32 }
%struct.global_State = type { %struct.stringtable, ptr, ptr, i8, i8, i32, ptr, ptr, ptr, ptr, ptr, ptr, %struct.Mbuffer, i64, i64, i64, i64, i32, i32, ptr, %struct.lua_TValue, ptr, %struct.UpVal, [9 x ptr], [17 x ptr] }
%struct.stringtable = type { ptr, i32, i32 }
%struct.Mbuffer = type { ptr, i64, i64 }
%struct.UpVal = type { ptr, i8, i8, ptr, %union.anon }
%union.anon = type { %struct.lua_TValue }
%struct.CClosure = type { ptr, i8, i8, i8, i8, ptr, ptr, ptr, [1 x %struct.lua_TValue] }
%struct.anon.1 = type { ptr, i8, i8, ptr, ptr, i64 }
%union.Udata = type { %struct.anon.1 }

; Function Attrs: nounwind uwtable
define internal ptr @getcurrenv(ptr noundef %0) #0 {
  %2 = alloca ptr, align 8
  %3 = alloca ptr, align 8
  %4 = alloca ptr, align 8
  store ptr %0, ptr %3, align 8, !tbaa !4
  %5 = load ptr, ptr %3, align 8, !tbaa !4
  %6 = getelementptr inbounds nuw %struct.lua_State, ptr %5, i32 0, i32 7
  %7 = load ptr, ptr %6, align 8, !tbaa !28
  %8 = load ptr, ptr %3, align 8, !tbaa !4
  %9 = getelementptr inbounds nuw %struct.lua_State, ptr %8, i32 0, i32 12
  %10 = load ptr, ptr %9, align 8, !tbaa !51
  %11 = icmp eq ptr %7, %10
  br i1 %11, label %12, label %17

12:                                               ; preds = %1
  %13 = load ptr, ptr %3, align 8, !tbaa !4
  %14 = getelementptr inbounds nuw %struct.lua_State, ptr %13, i32 0, i32 22
  %15 = getelementptr inbounds nuw %struct.lua_TValue, ptr %14, i32 0, i32 0
  %16 = load ptr, ptr %15, align 8, !tbaa !23
  store ptr %16, ptr %2, align 8
  br label %28

17:                                               ; preds = %1
  call void @llvm.lifetime.start.p0(i64 8, ptr %4) #6
  %18 = load ptr, ptr %3, align 8, !tbaa !4
  %19 = getelementptr inbounds nuw %struct.lua_State, ptr %18, i32 0, i32 7
  %20 = load ptr, ptr %19, align 8, !tbaa !28
  %21 = getelementptr inbounds nuw %struct.CallInfo, ptr %20, i32 0, i32 1
  %22 = load ptr, ptr %21, align 8, !tbaa !47
  %23 = getelementptr inbounds nuw %struct.lua_TValue, ptr %22, i32 0, i32 0
  %24 = load ptr, ptr %23, align 8, !tbaa !23
  store ptr %24, ptr %4, align 8, !tbaa !48
  %25 = load ptr, ptr %4, align 8, !tbaa !48
  %26 = getelementptr inbounds nuw %struct.CClosure, ptr %25, i32 0, i32 6
  %27 = load ptr, ptr %26, align 8, !tbaa !23
  store ptr %27, ptr %2, align 8
  call void @llvm.lifetime.end.p0(i64 8, ptr %4) #6
  br label %28

28:                                               ; preds = %17, %12
  %29 = load ptr, ptr %2, align 8
  ret ptr %29
}

; Function Attrs: nounwind uwtable
define dso_local ptr @lua_newuserdata(ptr noundef %0, i64 noundef %1) #0 {
  %3 = alloca ptr, align 8
  %4 = alloca i64, align 8
  %5 = alloca ptr, align 8
  %6 = alloca ptr, align 8
  store ptr %0, ptr %3, align 8, !tbaa !4
  store i64 %1, ptr %4, align 8, !tbaa !55
  call void @llvm.lifetime.start.p0(i64 8, ptr %5) #6
  %7 = load ptr, ptr %3, align 8, !tbaa !4
  %8 = getelementptr inbounds nuw %struct.lua_State, ptr %7, i32 0, i32 6
  %9 = load ptr, ptr %8, align 8, !tbaa !35
  %10 = getelementptr inbounds nuw %struct.global_State, ptr %9, i32 0, i32 14
  %11 = load i64, ptr %10, align 8, !tbaa !43
  %12 = load ptr, ptr %3, align 8, !tbaa !4
  %13 = getelementptr inbounds nuw %struct.lua_State, ptr %12, i32 0, i32 6
  %14 = load ptr, ptr %13, align 8, !tbaa !35
  %15 = getelementptr inbounds nuw %struct.global_State, ptr %14, i32 0, i32 13
  %16 = load i64, ptr %15, align 8, !tbaa !44
  %17 = icmp uge i64 %11, %16
  br i1 %17, label %18, label %20

18:                                               ; preds = %2
  %19 = load ptr, ptr %3, align 8, !tbaa !4
  call void @luaC_step(ptr noundef %19)
  br label %20

20:                                               ; preds = %18, %2
  %21 = load ptr, ptr %3, align 8, !tbaa !4
  %22 = load i64, ptr %4, align 8, !tbaa !55
  %23 = load ptr, ptr %3, align 8, !tbaa !4
  %24 = call ptr @getcurrenv(ptr noundef %23)
  %25 = call ptr @luaS_newudata(ptr noundef %21, i64 noundef %22, ptr noundef %24)
  store ptr %25, ptr %5, align 8, !tbaa !83
  call void @llvm.lifetime.start.p0(i64 8, ptr %6) #6
  %26 = load ptr, ptr %3, align 8, !tbaa !4
  %27 = getelementptr inbounds nuw %struct.lua_State, ptr %26, i32 0, i32 4
  %28 = load ptr, ptr %27, align 8, !tbaa !11
  store ptr %28, ptr %6, align 8, !tbaa !9
  %29 = load ptr, ptr %5, align 8, !tbaa !83
  %30 = load ptr, ptr %6, align 8, !tbaa !9
  %31 = getelementptr inbounds nuw %struct.lua_TValue, ptr %30, i32 0, i32 0
  store ptr %29, ptr %31, align 8, !tbaa !23
  %32 = load ptr, ptr %6, align 8, !tbaa !9
  %33 = getelementptr inbounds nuw %struct.lua_TValue, ptr %32, i32 0, i32 1
  store i32 7, ptr %33, align 8, !tbaa !24
  call void @llvm.lifetime.end.p0(i64 8, ptr %6) #6
  %34 = load ptr, ptr %3, align 8, !tbaa !4
  %35 = getelementptr inbounds nuw %struct.lua_State, ptr %34, i32 0, i32 4
  %36 = load ptr, ptr %35, align 8, !tbaa !11
  %37 = getelementptr inbounds nuw %struct.lua_TValue, ptr %36, i32 1
  store ptr %37, ptr %35, align 8, !tbaa !11
  %38 = load ptr, ptr %5, align 8, !tbaa !83
  %39 = getelementptr inbounds %union.Udata, ptr %38, i64 1
  call void @llvm.lifetime.end.p0(i64 8, ptr %5) #6
  ret ptr %39
}