; Function Attrs: nounwind uwtable
define dso_local nonnull ptr @lua_newuserdata(ptr noundef %0, i64 noundef %1) local_unnamed_addr #2 {
  %3 = getelementptr inbounds nuw i8, ptr %0, i64 32
  %4 = load ptr, ptr %3, align 8, !tbaa !29
  %5 = getelementptr inbounds nuw i8, ptr %4, i64 120
  %6 = load i64, ptr %5, align 8, !tbaa !38
  %7 = getelementptr inbounds nuw i8, ptr %4, i64 112
  %8 = load i64, ptr %7, align 8, !tbaa !39
  %.not = icmp ult i64 %6, %8
  br i1 %.not, label %10, label %9

9:                                                ; preds = %2
  tail call void @luaC_step(ptr noundef nonnull %0) #14
  br label %10

10:                                               ; preds = %9, %2
  %11 = getelementptr inbounds nuw i8, ptr %0, i64 40
  %12 = load ptr, ptr %11, align 8, !tbaa !23
  %13 = getelementptr inbounds nuw i8, ptr %0, i64 80
  %14 = load ptr, ptr %13, align 8, !tbaa !44
  %15 = icmp eq ptr %12, %14
  br i1 %15, label %16, label %18

16:                                               ; preds = %10
  %17 = getelementptr inbounds nuw i8, ptr %0, i64 120
  br label %getcurrenv.exit

18:                                               ; preds = %10
  %19 = getelementptr inbounds nuw i8, ptr %12, i64 8
  %20 = load ptr, ptr %19, align 8, !tbaa !41
  %21 = load ptr, ptr %20, align 8, !tbaa !19
  %22 = getelementptr inbounds nuw i8, ptr %21, i64 24
  br label %getcurrenv.exit

getcurrenv.exit:                                  ; preds = %16, %18
  %.0.in.i = phi ptr [ %17, %16 ], [ %22, %18 ]
  %.0.i = load ptr, ptr %.0.in.i, align 8, !tbaa !19
  %23 = tail call ptr @luaS_newudata(ptr noundef nonnull %0, i64 noundef %1, ptr noundef %.0.i) #14
  %24 = getelementptr inbounds nuw i8, ptr %0, i64 16
  %25 = load ptr, ptr %24, align 8, !tbaa !4
  store ptr %23, ptr %25, align 8, !tbaa !19
  %26 = getelementptr inbounds nuw i8, ptr %25, i64 8
  store i32 7, ptr %26, align 8, !tbaa !20
  %27 = load ptr, ptr %24, align 8, !tbaa !4
  %28 = getelementptr inbounds nuw i8, ptr %27, i64 16
  store ptr %28, ptr %24, align 8, !tbaa !4
  %29 = getelementptr inbounds nuw i8, ptr %23, i64 40
  ret ptr %29
}